target datalayout = "e-m:e-p270:32:32-p271:32:32-p272:64:64-i64:64-i128:128-f80:128-n8:16:32:64-S128"
target triple = "x86_64-pc-linux-gnu"

%"class.cv::Point_" = type { i32, i32 }
%struct.MouseEvent = type { %"class.cv::Point_", i32, i32 }

; Function Attrs: inlinehint mustprogress nounwind uwtable
define linkonce_odr hidden void @_ZN2cv6Point_IiEC2Eii(ptr noundef nonnull align 4 dereferenceable(8) %0, i32 noundef %1, i32 noundef %2) unnamed_addr #9 comdat align 2 {
  %4 = alloca ptr, align 8
  %5 = alloca i32, align 4
  %6 = alloca i32, align 4
  store ptr %0, ptr %4, align 8, !tbaa !179
  store i32 %1, ptr %5, align 4, !tbaa !4
  store i32 %2, ptr %6, align 4, !tbaa !4
  %7 = load ptr, ptr %4, align 8
  %8 = getelementptr inbounds nuw %"class.cv::Point_", ptr %7, i32 0, i32 0
  %9 = load i32, ptr %5, align 4, !tbaa !4
  store i32 %9, ptr %8, align 4, !tbaa !181
  %10 = getelementptr inbounds nuw %"class.cv::Point_", ptr %7, i32 0, i32 1
  %11 = load i32, ptr %6, align 4, !tbaa !4
  store i32 %11, ptr %10, align 4, !tbaa !182
  ret void
}

; Function Attrs: mustprogress uwtable
define internal void @_ZL7onMouseiiiiPv(i32 noundef %0, i32 noundef %1, i32 noundef %2, i32 noundef %3, ptr noundef %4) #8 {
  %6 = alloca i32, align 4
  %7 = alloca i32, align 4
  %8 = alloca i32, align 4
  %9 = alloca i32, align 4
  %10 = alloca ptr, align 8
  %11 = alloca ptr, align 8
  %12 = alloca %"class.cv::Point_", align 4
  store i32 %0, ptr %6, align 4, !tbaa !4
  store i32 %1, ptr %7, align 4, !tbaa !4
  store i32 %2, ptr %8, align 4, !tbaa !4
  store i32 %3, ptr %9, align 4, !tbaa !4
  store ptr %4, ptr %10, align 8, !tbaa !59
  call void @llvm.lifetime.start.p0(i64 8, ptr %11) #3
  %13 = load ptr, ptr %10, align 8, !tbaa !59
  store ptr %13, ptr %11, align 8, !tbaa !60
  %14 = load i32, ptr %6, align 4, !tbaa !4
  %15 = load ptr, ptr %11, align 8, !tbaa !60
  %16 = getelementptr inbounds nuw %struct.MouseEvent, ptr %15, i32 0, i32 1
  store i32 %14, ptr %16, align 4, !tbaa !62
  call void @llvm.lifetime.start.p0(i64 8, ptr %12) #3
  %17 = load i32, ptr %7, align 4, !tbaa !4
  %18 = load i32, ptr %8, align 4, !tbaa !4
  call void @_ZN2cv6Point_IiEC2Eii(ptr noundef nonnull align 4 dereferenceable(8) %12, i32 noundef %17, i32 noundef %18)
  %19 = load ptr, ptr %11, align 8, !tbaa !60
  %20 = getelementptr inbounds nuw %struct.MouseEvent, ptr %19, i32 0, i32 0
  call void @llvm.memcpy.p0.p0.i64(ptr align 4 %20, ptr align 4 %12, i64 8, i1 false), !tbaa.struct !24
  call void @llvm.lifetime.end.p0(i64 8, ptr %12) #3
  %21 = load i32, ptr %9, align 4, !tbaa !4
  %22 = load ptr, ptr %11, align 8, !tbaa !60
  %23 = getelementptr inbounds nuw %struct.MouseEvent, ptr %22, i32 0, i32 2
  store i32 %21, ptr %23, align 4, !tbaa !65
  call void @llvm.lifetime.end.p0(i64 8, ptr %11) #3
  ret void
}