; Function Attrs: mustprogress nofree norecurse nosync nounwind willreturn memory(argmem: write) uwtable
define internal void @_ZL7onMouseiiiiPv(i32 noundef %0, i32 noundef %1, i32 noundef %2, i32 noundef %3, ptr noundef writeonly captures(none) initializes((0, 16)) %4) #11 {
  %6 = getelementptr inbounds nuw i8, ptr %4, i64 8
  store i32 %0, ptr %6, align 4, !tbaa !143
  %.sroa.4.0.insert.ext = zext i32 %2 to i64
  %.sroa.4.0.insert.shift = shl nuw i64 %.sroa.4.0.insert.ext, 32
  %.sroa.0.0.insert.ext = zext i32 %1 to i64
  %.sroa.0.0.insert.insert = or disjoint i64 %.sroa.4.0.insert.shift, %.sroa.0.0.insert.ext
  store i64 %.sroa.0.0.insert.insert, ptr %4, align 4
  %7 = getelementptr inbounds nuw i8, ptr %4, i64 12
  store i32 %3, ptr %7, align 4, !tbaa !145
  ret void
}